ccopy_reg
_reconstructor
p1
(cscipy.optimize.optimize
OptimizeResult
p2
c__builtin__
dict
p3
(dp4
S'nfev'
p5
I317605
sS'success'
p6
I01
sS'fun'
p7
cnumpy.core.multiarray
scalar
p8
(cnumpy
dtype
p9
(S'f8'
I0
I1
tRp10
(I3
S'<'
NNNI-1
I-1
I0
tbS'\x00\x00\x00\x00\x00\x00\x00\x00'
tRp11
sS'x'
cnumpy.core.multiarray
_reconstruct
p12
(cnumpy
ndarray
p13
(I0
tS'b'
tRp14
(I1
(I4
tg10
I00
S'w\xa2\xaaJvfk@\xf3`S\xef\xday\xfe?\xbb\n\xe5#\xd4\xe9\xeb?\xf5\xd3e\xee:\xd7\xea?'
tbsS'message'
p15
S'Optimization terminated successfully.'
p16
sS'nit'
p17
I1984
stRp18
.