ccopy_reg
_reconstructor
p1
(cscipy.optimize.optimize
OptimizeResult
p2
c__builtin__
dict
p3
(dp4
S'nfev'
p5
I11445
sS'success'
p6
I01
sS'fun'
p7
cnumpy.core.multiarray
scalar
p8
(cnumpy
dtype
p9
(S'f8'
I0
I1
tRp10
(I3
S'<'
NNNI-1
I-1
I0
tbS'\x00\x00\x00\x00\x00\x00 8'
tRp11
sS'x'
cnumpy.core.multiarray
_reconstruct
p12
(cnumpy
ndarray
p13
(I0
tS'b'
tRp14
(I1
(I4
tg10
I00
S'\x8e\xa7\x1f\xc4{TZ@\x9d\x86D[1\x8d\x15@M\xa7a\xff\x8b"\r@fv\xf1f\x119\xef?'
tbsS'message'
p15
S'Optimization terminated successfully.'
p16
sS'nit'
p17
I142
stRp18
.